target datalayout = "e-m:e-p270:32:32-p271:32:32-p272:64:64-i64:64-i128:128-f80:128-n8:16:32:64-S128"
target triple = "x86_64-pc-linux-gnu"

; Function Attrs: nounwind uwtable
define ptr @Abc_NtkIvyResyn0(ptr noundef %0, i32 noundef %1, i32 noundef %2) #0 {
  %4 = alloca ptr, align 8
  %5 = alloca ptr, align 8
  %6 = alloca i32, align 4
  %7 = alloca i32, align 4
  %8 = alloca ptr, align 8
  %9 = alloca ptr, align 8
  %10 = alloca ptr, align 8
  %11 = alloca i32, align 4
  store ptr %0, ptr %5, align 8, !tbaa !3
  store i32 %1, ptr %6, align 4, !tbaa !8
  store i32 %2, ptr %7, align 4, !tbaa !8
  call void @llvm.lifetime.start.p0(i64 8, ptr %8) #11
  call void @llvm.lifetime.start.p0(i64 8, ptr %9) #11
  call void @llvm.lifetime.start.p0(i64 8, ptr %10) #11
  %12 = load ptr, ptr %5, align 8, !tbaa !3
  %13 = call ptr @Abc_NtkIvyBefore(ptr noundef %12, i32 noundef 0, i32 noundef 0)
  store ptr %13, ptr %9, align 8, !tbaa !10
  %14 = load ptr, ptr %9, align 8, !tbaa !10
  %15 = icmp eq ptr %14, null
  br i1 %15, label %16, label %17

16:                                               ; preds = %3
  store ptr null, ptr %4, align 8
  store i32 1, ptr %11, align 4
  br label %28

17:                                               ; preds = %3
  %18 = load ptr, ptr %9, align 8, !tbaa !10
  store ptr %18, ptr %10, align 8, !tbaa !10
  %19 = load i32, ptr %6, align 4, !tbaa !8
  %20 = load i32, ptr %7, align 4, !tbaa !8
  %21 = call ptr @Ivy_ManResyn0(ptr noundef %18, i32 noundef %19, i32 noundef %20)
  store ptr %21, ptr %9, align 8, !tbaa !10
  %22 = load ptr, ptr %10, align 8, !tbaa !10
  call void @Ivy_ManStop(ptr noundef %22)
  %23 = load ptr, ptr %5, align 8, !tbaa !3
  %24 = load ptr, ptr %9, align 8, !tbaa !10
  %25 = call ptr @Abc_NtkIvyAfter(ptr noundef %23, ptr noundef %24, i32 noundef 0, i32 noundef 0)
  store ptr %25, ptr %8, align 8, !tbaa !3
  %26 = load ptr, ptr %9, align 8, !tbaa !10
  call void @Ivy_ManStop(ptr noundef %26)
  %27 = load ptr, ptr %8, align 8, !tbaa !3
  store ptr %27, ptr %4, align 8
  store i32 1, ptr %11, align 4
  br label %28

28:                                               ; preds = %17, %16
  call void @llvm.lifetime.end.p0(i64 8, ptr %10) #11
  call void @llvm.lifetime.end.p0(i64 8, ptr %9) #11
  call void @llvm.lifetime.end.p0(i64 8, ptr %8) #11
  %29 = load ptr, ptr %4, align 8
  ret ptr %29
}